target datalayout = "e-m:e-p270:32:32-p271:32:32-p272:64:64-i64:64-i128:128-f80:128-n8:16:32:64-S128"
target triple = "x86_64-pc-linux-gnu"

%"class.icu_77::RuleBasedTimeZone" = type <{ %"class.icu_77::BasicTimeZone", ptr, ptr, ptr, ptr, i8, [7 x i8] }>
%"class.icu_77::BasicTimeZone" = type { %"class.icu_77::TimeZone" }
%"class.icu_77::TimeZone" = type { %"class.icu_77::UObject", %"class.icu_77::UnicodeString" }
%"class.icu_77::UObject" = type { ptr }
%"class.icu_77::UnicodeString" = type { %"class.icu_77::Replaceable", %"union.icu_77::UnicodeString::StackBufferOrFields" }
%"class.icu_77::Replaceable" = type { %"class.icu_77::UObject" }
%"union.icu_77::UnicodeString::StackBufferOrFields" = type { %struct.anon.0, [32 x i8] }
%struct.anon.0 = type { i16, i32, i32, ptr }

; Function Attrs: mustprogress uwtable
define void @_ZN6icu_7717RuleBasedTimeZoneC2ERKS0_(ptr noundef nonnull align 8 dereferenceable(105) %0, ptr noundef nonnull align 8 dereferenceable(105) %1) unnamed_addr #1 align 2 personality ptr @__gxx_personality_v0 {
  %3 = alloca ptr, align 8
  %4 = alloca ptr, align 8
  %5 = alloca ptr, align 8
  %6 = alloca i32, align 4
  %7 = alloca i32, align 4
  store ptr %0, ptr %3, align 8, !tbaa !3
  store ptr %1, ptr %4, align 8, !tbaa !3
  %8 = load ptr, ptr %3, align 8
  %9 = load ptr, ptr %4, align 8, !tbaa !3
  call void @_ZN6icu_7713BasicTimeZoneC2ERKS0_(ptr noundef nonnull align 8 dereferenceable(72) %8, ptr noundef nonnull align 8 dereferenceable(72) %9)
  store ptr getelementptr inbounds inrange(-16, 176) ({ [24 x ptr] }, ptr @_ZTVN6icu_7717RuleBasedTimeZoneE, i32 0, i32 0, i32 2), ptr %8, align 8, !tbaa !12
  %10 = getelementptr inbounds nuw %"class.icu_77::RuleBasedTimeZone", ptr %8, i32 0, i32 1
  %11 = load ptr, ptr %4, align 8, !tbaa !3
  %12 = getelementptr inbounds nuw %"class.icu_77::RuleBasedTimeZone", ptr %11, i32 0, i32 1
  %13 = load ptr, ptr %12, align 8, !tbaa !14
  %14 = load ptr, ptr %13, align 8, !tbaa !12
  %15 = getelementptr inbounds ptr, ptr %14, i64 3
  %16 = load ptr, ptr %15, align 8
  %17 = invoke noundef ptr %16(ptr noundef nonnull align 8 dereferenceable(80) %13)
          to label %18 unwind label %39

18:                                               ; preds = %2
  store ptr %17, ptr %10, align 8, !tbaa !14
  %19 = getelementptr inbounds nuw %"class.icu_77::RuleBasedTimeZone", ptr %8, i32 0, i32 4
  store ptr null, ptr %19, align 8, !tbaa !24
  %20 = getelementptr inbounds nuw %"class.icu_77::RuleBasedTimeZone", ptr %8, i32 0, i32 5
  store i8 0, ptr %20, align 8, !tbaa !25
  %21 = load ptr, ptr %4, align 8, !tbaa !3
  %22 = getelementptr inbounds nuw %"class.icu_77::RuleBasedTimeZone", ptr %21, i32 0, i32 2
  %23 = load ptr, ptr %22, align 8, !tbaa !22
  %24 = invoke noundef ptr @_ZN6icu_7717RuleBasedTimeZone9copyRulesEPNS_7UVectorE(ptr noundef nonnull align 8 dereferenceable(105) %8, ptr noundef %23)
          to label %25 unwind label %39

25:                                               ; preds = %18
  %26 = getelementptr inbounds nuw %"class.icu_77::RuleBasedTimeZone", ptr %8, i32 0, i32 2
  store ptr %24, ptr %26, align 8, !tbaa !22
  %27 = load ptr, ptr %4, align 8, !tbaa !3
  %28 = getelementptr inbounds nuw %"class.icu_77::RuleBasedTimeZone", ptr %27, i32 0, i32 3
  %29 = load ptr, ptr %28, align 8, !tbaa !23
  %30 = invoke noundef ptr @_ZN6icu_7717RuleBasedTimeZone9copyRulesEPNS_7UVectorE(ptr noundef nonnull align 8 dereferenceable(105) %8, ptr noundef %29)
          to label %31 unwind label %39

31:                                               ; preds = %25
  %32 = getelementptr inbounds nuw %"class.icu_77::RuleBasedTimeZone", ptr %8, i32 0, i32 3
  store ptr %30, ptr %32, align 8, !tbaa !23
  %33 = load ptr, ptr %4, align 8, !tbaa !3
  %34 = getelementptr inbounds nuw %"class.icu_77::RuleBasedTimeZone", ptr %33, i32 0, i32 5
  %35 = load i8, ptr %34, align 8, !tbaa !25
  %36 = icmp ne i8 %35, 0
  br i1 %36, label %37, label %47

37:                                               ; preds = %31
  call void @llvm.lifetime.start.p0(i64 4, ptr %7) #12
  store i32 0, ptr %7, align 4, !tbaa !26
  invoke void @_ZN6icu_7717RuleBasedTimeZone8completeER10UErrorCode(ptr noundef nonnull align 8 dereferenceable(105) %8, ptr noundef nonnull align 4 dereferenceable(4) %7)
          to label %38 unwind label %43

38:                                               ; preds = %37
  call void @llvm.lifetime.end.p0(i64 4, ptr %7) #12
  br label %47

39:                                               ; preds = %25, %18, %2
  %40 = landingpad { ptr, i32 }
          cleanup
  %41 = extractvalue { ptr, i32 } %40, 0
  store ptr %41, ptr %5, align 8
  %42 = extractvalue { ptr, i32 } %40, 1
  store i32 %42, ptr %6, align 4
  br label %48

43:                                               ; preds = %37
  %44 = landingpad { ptr, i32 }
          cleanup
  %45 = extractvalue { ptr, i32 } %44, 0
  store ptr %45, ptr %5, align 8
  %46 = extractvalue { ptr, i32 } %44, 1
  store i32 %46, ptr %6, align 4
  call void @llvm.lifetime.end.p0(i64 4, ptr %7) #12
  br label %48

47:                                               ; preds = %38, %31
  ret void

48:                                               ; preds = %43, %39
  call void @_ZN6icu_7713BasicTimeZoneD2Ev(ptr noundef nonnull align 8 dereferenceable(72) %8) #12
  br label %49

49:                                               ; preds = %48
  %50 = load ptr, ptr %5, align 8
  %51 = load i32, ptr %6, align 4
  %52 = insertvalue { ptr, i32 } poison, ptr %50, 0
  %53 = insertvalue { ptr, i32 } %52, i32 %51, 1
  resume { ptr, i32 } %53
}