; Function Attrs: mustprogress uwtable
define void @_ZN6icu_7717RuleBasedTimeZoneC2ERKS0_(ptr noundef nonnull align 8 dereferenceable(105) %0, ptr noundef nonnull align 8 dereferenceable(105) %1) unnamed_addr #1 align 2 personality ptr @__gxx_personality_v0 {
  %3 = alloca i32, align 4
  tail call void @_ZN6icu_7713BasicTimeZoneC2ERKS0_(ptr noundef nonnull align 8 dereferenceable(72) %0, ptr noundef nonnull align 8 dereferenceable(72) %1)
  store ptr getelementptr inbounds nuw inrange(-16, 176) (i8, ptr @_ZTVN6icu_7717RuleBasedTimeZoneE, i64 16), ptr %0, align 8, !tbaa !3
  %4 = getelementptr inbounds nuw i8, ptr %1, i64 72
  %5 = load ptr, ptr %4, align 8, !tbaa !6
  %6 = load ptr, ptr %5, align 8, !tbaa !3
  %7 = getelementptr inbounds nuw i8, ptr %6, i64 24
  %8 = load ptr, ptr %7, align 8
  %9 = invoke noundef ptr %8(ptr noundef nonnull align 8 dereferenceable(80) %5)
          to label %10 unwind label %28

10:                                               ; preds = %2
  %11 = getelementptr inbounds nuw i8, ptr %0, i64 72
  store ptr %9, ptr %11, align 8, !tbaa !6
  %12 = getelementptr inbounds nuw i8, ptr %0, i64 96
  store ptr null, ptr %12, align 8, !tbaa !17
  %13 = getelementptr inbounds nuw i8, ptr %0, i64 104
  store i8 0, ptr %13, align 8, !tbaa !18
  %14 = getelementptr inbounds nuw i8, ptr %1, i64 80
  %15 = load ptr, ptr %14, align 8, !tbaa !19
  %16 = invoke noundef ptr @_ZN6icu_7717RuleBasedTimeZone9copyRulesEPNS_7UVectorE(ptr nonnull align 8 poison, ptr noundef %15)
          to label %17 unwind label %28

17:                                               ; preds = %10
  %18 = getelementptr inbounds nuw i8, ptr %0, i64 80
  store ptr %16, ptr %18, align 8, !tbaa !19
  %19 = getelementptr inbounds nuw i8, ptr %1, i64 88
  %20 = load ptr, ptr %19, align 8, !tbaa !20
  %21 = invoke noundef ptr @_ZN6icu_7717RuleBasedTimeZone9copyRulesEPNS_7UVectorE(ptr nonnull align 8 poison, ptr noundef %20)
          to label %22 unwind label %28

22:                                               ; preds = %17
  %23 = getelementptr inbounds nuw i8, ptr %0, i64 88
  store ptr %21, ptr %23, align 8, !tbaa !20
  %24 = getelementptr inbounds nuw i8, ptr %1, i64 104
  %25 = load i8, ptr %24, align 8, !tbaa !18
  %.not = icmp eq i8 %25, 0
  br i1 %.not, label %32, label %26

26:                                               ; preds = %22
  call void @llvm.lifetime.start.p0(i64 4, ptr nonnull %3) #14
  store i32 0, ptr %3, align 4, !tbaa !21
  invoke void @_ZN6icu_7717RuleBasedTimeZone8completeER10UErrorCode(ptr noundef nonnull align 8 dereferenceable(105) %0, ptr noundef nonnull align 4 dereferenceable(4) %3)
          to label %27 unwind label %30

27:                                               ; preds = %26
  call void @llvm.lifetime.end.p0(i64 4, ptr nonnull %3) #14
  br label %32

28:                                               ; preds = %17, %10, %2
  %29 = landingpad { ptr, i32 }
          cleanup
  br label %33

30:                                               ; preds = %26
  %31 = landingpad { ptr, i32 }
          cleanup
  call void @llvm.lifetime.end.p0(i64 4, ptr nonnull %3) #14
  br label %33

32:                                               ; preds = %27, %22
  ret void

33:                                               ; preds = %30, %28
  %.pn = phi { ptr, i32 } [ %31, %30 ], [ %29, %28 ]
  call void @_ZN6icu_7713BasicTimeZoneD2Ev(ptr noundef nonnull align 8 dereferenceable(72) %0) #14
  resume { ptr, i32 } %.pn
}